target datalayout = "e-m:e-p270:32:32-p271:32:32-p272:64:64-i64:64-i128:128-f80:128-n8:16:32:64-S128"
target triple = "x86_64-pc-linux-gnu"

; Function Attrs: nounwind uwtable
define i32 @rdefmtdate(ptr noundef %0, ptr noundef %1, ptr noundef %2) #0 {
  %4 = alloca i32, align 4
  %5 = alloca ptr, align 8
  %6 = alloca ptr, align 8
  %7 = alloca ptr, align 8
  store ptr %0, ptr %5, align 8
  store ptr %1, ptr %6, align 8
  store ptr %2, ptr %7, align 8
  %8 = call ptr @__errno_location() #8
  store i32 0, ptr %8, align 4
  %9 = load ptr, ptr %5, align 8
  %10 = load ptr, ptr %6, align 8
  %11 = load ptr, ptr %7, align 8
  %12 = call i32 @PGTYPESdate_defmt_asc(ptr noundef %9, ptr noundef %10, ptr noundef %11)
  %13 = icmp eq i32 %12, 0
  br i1 %13, label %14, label %15

14:                                               ; preds = %3
  store i32 0, ptr %4, align 4
  br label %23

15:                                               ; preds = %3
  %16 = call ptr @__errno_location() #8
  %17 = load i32, ptr %16, align 4
  switch i32 %17, label %22 [
    i32 312, label %18
    i32 311, label %19
    i32 313, label %19
    i32 314, label %20
    i32 315, label %21
  ]

18:                                               ; preds = %15
  store i32 -1209, ptr %4, align 4
  br label %23

19:                                               ; preds = %15, %15
  store i32 -1212, ptr %4, align 4
  br label %23

20:                                               ; preds = %15
  store i32 -1206, ptr %4, align 4
  br label %23

21:                                               ; preds = %15
  store i32 -1205, ptr %4, align 4
  br label %23

22:                                               ; preds = %15
  store i32 -1204, ptr %4, align 4
  br label %23

23:                                               ; preds = %22, %21, %20, %19, %18, %14
  %24 = load i32, ptr %4, align 4
  ret i32 %24
}