; Function Attrs: nounwind uwtable
define range(i32 -1212, 1) i32 @rdefmtdate(ptr noundef %0, ptr noundef %1, ptr noundef %2) local_unnamed_addr #0 {
  %4 = tail call ptr @__errno_location() #15
  store i32 0, ptr %4, align 4
  %5 = tail call i32 @PGTYPESdate_defmt_asc(ptr noundef %0, ptr noundef %1, ptr noundef %2) #16
  %6 = icmp eq i32 %5, 0
  br i1 %6, label %11, label %7

7:                                                ; preds = %3
  %8 = load i32, ptr %4, align 4
  %switch.tableidx = add i32 %8, -311
  %9 = icmp ult i32 %switch.tableidx, 5
  br i1 %9, label %switch.lookup, label %11

switch.lookup:                                    ; preds = %7
  %10 = zext nneg i32 %switch.tableidx to i64
  %switch.gep = getelementptr inbounds nuw [5 x i32], ptr @switch.table.rdefmtdate, i64 0, i64 %10
  %switch.load = load i32, ptr %switch.gep, align 4
  br label %11

11:                                               ; preds = %7, %switch.lookup, %3
  %.0 = phi i32 [ 0, %3 ], [ %switch.load, %switch.lookup ], [ -1204, %7 ]
  ret i32 %.0
}